target datalayout = "e-m:e-p270:32:32-p271:32:32-p272:64:64-i64:64-i128:128-f80:128-n8:16:32:64-S128"
target triple = "x86_64-pc-linux-gnu"

%"struct.std::_Rb_tree_header" = type { %"struct.std::_Rb_tree_node_base", i64 }
%"struct.std::_Rb_tree_node_base" = type { i32, ptr, ptr, ptr }
%"class.std::shared_ptr" = type { %"class.std::__shared_ptr" }
%"class.std::__shared_ptr" = type { ptr, %"class.std::__shared_count" }
%"class.std::__shared_count" = type { ptr }
%"class.std::vector.31" = type { %"struct.std::_Vector_base.32" }
%"struct.std::_Vector_base.32" = type { %"struct.std::_Vector_base<int, std::allocator<int>>::_Vector_impl" }
%"struct.std::_Vector_base<int, std::allocator<int>>::_Vector_impl" = type { %"struct.std::_Vector_base<int, std::allocator<int>>::_Vector_impl_data" }
%"struct.std::_Vector_base<int, std::allocator<int>>::_Vector_impl_data" = type { ptr, ptr, ptr }
%"class.open_spiel::gin_rummy::GinRummyState" = type { %"class.open_spiel::State.base", i8, i32, i32, i32, i32, i32, i32, i32, %"struct.open_spiel::gin_rummy::GinRummyUtils", i32, i32, i32, i8, %"class.absl::debian2::optional", %"class.absl::debian2::optional", i32, i8, i32, %"class.std::vector.22", %"class.std::vector.27", %"class.std::vector.31", %"class.std::vector.31", %"class.std::vector.27", %"class.std::vector.27", %"class.std::vector.22", %"class.std::vector.31", %"class.std::vector.36" }
%"class.open_spiel::State.base" = type <{ ptr, %"class.std::shared_ptr", i32, i32, %"class.std::vector", i32 }>
%"class.std::vector" = type { %"struct.std::_Vector_base" }
%"struct.std::_Vector_base" = type { %"struct.std::_Vector_base<open_spiel::State::PlayerAction, std::allocator<open_spiel::State::PlayerAction>>::_Vector_impl" }
%"struct.std::_Vector_base<open_spiel::State::PlayerAction, std::allocator<open_spiel::State::PlayerAction>>::_Vector_impl" = type { %"struct.std::_Vector_base<open_spiel::State::PlayerAction, std::allocator<open_spiel::State::PlayerAction>>::_Vector_impl_data" }
%"struct.std::_Vector_base<open_spiel::State::PlayerAction, std::allocator<open_spiel::State::PlayerAction>>::_Vector_impl_data" = type { ptr, ptr, ptr }
%"struct.open_spiel::gin_rummy::GinRummyUtils" = type { i32, i32, i32, i32, %"struct.open_spiel::gin_rummy::SuitComparator", %"struct.open_spiel::gin_rummy::RankComparator", %"class.std::map.9", %"class.std::map.15" }
%"struct.open_spiel::gin_rummy::SuitComparator" = type { i32 }
%"struct.open_spiel::gin_rummy::RankComparator" = type { i32 }
%"class.std::map.9" = type { %"class.std::_Rb_tree.10" }
%"class.std::_Rb_tree.10" = type { %"struct.std::_Rb_tree<int, std::pair<const int, std::vector<int>>, std::_Select1st<std::pair<const int, std::vector<int>>>, std::less<int>>::_Rb_tree_impl" }
%"struct.std::_Rb_tree<int, std::pair<const int, std::vector<int>>, std::_Select1st<std::pair<const int, std::vector<int>>>, std::less<int>>::_Rb_tree_impl" = type { [8 x i8], %"struct.std::_Rb_tree_header" }
%"class.std::map.15" = type { %"class.std::_Rb_tree.16" }
%"class.std::_Rb_tree.16" = type { %"struct.std::_Rb_tree<std::vector<int>, std::pair<const std::vector<int>, int>, std::_Select1st<std::pair<const std::vector<int>, int>>, std::less<std::vector<int>>>::_Rb_tree_impl" }
%"struct.std::_Rb_tree<std::vector<int>, std::pair<const std::vector<int>, int>, std::_Select1st<std::pair<const std::vector<int>, int>>, std::less<std::vector<int>>>::_Rb_tree_impl" = type { [8 x i8], %"struct.std::_Rb_tree_header" }
%"class.absl::debian2::optional" = type { %"class.absl::debian2::optional_internal::optional_data" }
%"class.absl::debian2::optional_internal::optional_data" = type { %"class.absl::debian2::optional_internal::optional_data_base" }
%"class.absl::debian2::optional_internal::optional_data_base" = type { %"class.absl::debian2::optional_internal::optional_data_dtor_base" }
%"class.absl::debian2::optional_internal::optional_data_dtor_base" = type { i8, %union.anon.21 }
%union.anon.21 = type { i32 }
%"class.std::vector.27" = type { %"struct.std::_Bvector_base" }
%"struct.std::_Bvector_base" = type { %"struct.std::_Bvector_base<std::allocator<bool>>::_Bvector_impl" }
%"struct.std::_Bvector_base<std::allocator<bool>>::_Bvector_impl" = type { %"struct.std::_Bvector_base<std::allocator<bool>>::_Bvector_impl_data" }
%"struct.std::_Bvector_base<std::allocator<bool>>::_Bvector_impl_data" = type { %"struct.std::_Bit_iterator", %"struct.std::_Bit_iterator", ptr }
%"struct.std::_Bit_iterator" = type { %"struct.std::_Bit_iterator_base.base", [4 x i8] }
%"struct.std::_Bit_iterator_base.base" = type <{ ptr, i32 }>
%"class.std::vector.22" = type { %"struct.std::_Vector_base.23" }
%"struct.std::_Vector_base.23" = type { %"struct.std::_Vector_base<std::vector<int>, std::allocator<std::vector<int>>>::_Vector_impl" }
%"struct.std::_Vector_base<std::vector<int>, std::allocator<std::vector<int>>>::_Vector_impl" = type { %"struct.std::_Vector_base<std::vector<int>, std::allocator<std::vector<int>>>::_Vector_impl_data" }
%"struct.std::_Vector_base<std::vector<int>, std::allocator<std::vector<int>>>::_Vector_impl_data" = type { ptr, ptr, ptr }
%"class.std::vector.36" = type { %"struct.std::_Vector_base.37" }
%"struct.std::_Vector_base.37" = type { %"struct.std::_Vector_base<open_spiel::ActionObservationHistory, std::allocator<open_spiel::ActionObservationHistory>>::_Vector_impl" }
%"struct.std::_Vector_base<open_spiel::ActionObservationHistory, std::allocator<open_spiel::ActionObservationHistory>>::_Vector_impl" = type { %"struct.std::_Vector_base<open_spiel::ActionObservationHistory, std::allocator<open_spiel::ActionObservationHistory>>::_Vector_impl_data" }
%"struct.std::_Vector_base<open_spiel::ActionObservationHistory, std::allocator<open_spiel::ActionObservationHistory>>::_Vector_impl_data" = type { ptr, ptr, ptr }

; Function Attrs: mustprogress uwtable
define noundef i32 @_ZNK10open_spiel9gin_rummy13GinRummyState13CurrentPlayerEv(ptr noundef nonnull align 8 dereferenceable(528) %0) unnamed_addr #4 align 2 {
  %2 = alloca i32, align 4
  %3 = alloca ptr, align 8
  store ptr %0, ptr %3, align 8
  %4 = load ptr, ptr %3, align 8
  %5 = load ptr, ptr %4, align 8
  %6 = getelementptr inbounds ptr, ptr %5, i64 11
  %7 = load ptr, ptr %6, align 8
  %8 = call noundef zeroext i1 %7(ptr noundef nonnull align 8 dereferenceable(528) %4)
  br i1 %8, label %9, label %10

9:                                                ; preds = %1
  store i32 -4, ptr %2, align 4
  br label %13

10:                                               ; preds = %1
  %11 = getelementptr inbounds nuw %"class.open_spiel::gin_rummy::GinRummyState", ptr %4, i32 0, i32 11
  %12 = load i32, ptr %11, align 4
  store i32 %12, ptr %2, align 4
  br label %13

13:                                               ; preds = %10, %9
  %14 = load i32, ptr %2, align 4
  ret i32 %14
}